target datalayout = "e-m:e-p270:32:32-p271:32:32-p272:64:64-i64:64-i128:128-f80:128-n8:16:32:64-S128"
target triple = "x86_64-pc-linux-gnu"

%struct.slurmctld_lock_t = type { i32, i32, i32, i32, i32 }
%struct.job_state_args_t = type { i32, i32, i32, ptr, i8 }
%struct.slurm_selected_step_t = type { ptr, i32, i32, %struct.slurm_step_id_msg }
%struct.slurm_step_id_msg = type { i64, i32, i32, i32 }

@__const.dump_job_state.job_read_lock = private unnamed_addr constant %struct.slurmctld_lock_t { i32 0, i32 1, i32 0, i32 0, i32 0 }, align 4
@__const.dump_job_state.args = private unnamed_addr constant { i32, i32, i32, [4 x i8], ptr, i8, [7 x i8] } { i32 168554222, i32 0, i32 0, [4 x i8] zeroinitializer, ptr null, i8 1, [7 x i8] zeroinitializer }, align 8
@cache_table = internal global ptr null, align 8
@.str = private unnamed_addr constant [12 x i8] c"job_state.c\00", align 1
@__func__.dump_job_state = private unnamed_addr constant [15 x i8] c"dump_job_state\00", align 1

; Function Attrs: nounwind uwtable
define internal void @_dump_job_state_locked(ptr noundef %0, i32 noundef %1, ptr noundef %2) #0 {
  %4 = alloca ptr, align 8
  %5 = alloca i32, align 4
  %6 = alloca ptr, align 8
  %7 = alloca %struct.slurm_selected_step_t, align 8
  %8 = alloca i32, align 4
  store ptr %0, ptr %4, align 8
  store i32 %1, ptr %5, align 4
  store ptr %2, ptr %6, align 8
  %9 = load i32, ptr %5, align 4
  %10 = icmp ne i32 %9, 0
  br i1 %10, label %20, label %11

11:                                               ; preds = %3
  call void @llvm.lifetime.start.p0(i64 40, ptr %7) #8
  call void @llvm.memset.p0.i64(ptr align 8 %7, i8 0, i64 40, i1 false)
  %12 = getelementptr inbounds { ptr, i32, i32, { i64, i32, i32, i32, [4 x i8] } }, ptr %7, i32 0, i32 1
  store i32 -2, ptr %12, align 8
  %13 = getelementptr inbounds { ptr, i32, i32, { i64, i32, i32, i32, [4 x i8] } }, ptr %7, i32 0, i32 2
  store i32 -2, ptr %13, align 4
  %14 = getelementptr inbounds { ptr, i32, i32, { i64, i32, i32, i32, [4 x i8] } }, ptr %7, i32 0, i32 3
  %15 = getelementptr inbounds { i64, i32, i32, i32, [4 x i8] }, ptr %14, i32 0, i32 0
  store i64 4294967294, ptr %15, align 8
  %16 = getelementptr inbounds { i64, i32, i32, i32, [4 x i8] }, ptr %14, i32 0, i32 1
  store i32 -2, ptr %16, align 8
  %17 = getelementptr inbounds { i64, i32, i32, i32, [4 x i8] }, ptr %14, i32 0, i32 2
  store i32 -2, ptr %17, align 4
  %18 = load ptr, ptr %4, align 8
  %19 = call i32 @foreach_job_by_id_ro(ptr noundef %7, ptr noundef @_foreach_job, ptr noundef null, ptr noundef %18)
  call void @llvm.lifetime.end.p0(i64 40, ptr %7) #8
  br label %44

20:                                               ; preds = %3
  call void @llvm.lifetime.start.p0(i64 4, ptr %8) #8
  store i32 0, ptr %8, align 4
  br label %21

21:                                               ; preds = %40, %20
  %22 = load ptr, ptr %4, align 8
  %23 = getelementptr inbounds nuw %struct.job_state_args_t, ptr %22, i32 0, i32 1
  %24 = load i32, ptr %23, align 4
  %25 = icmp ne i32 %24, 0
  br i1 %25, label %30, label %26

26:                                               ; preds = %21
  %27 = load i32, ptr %8, align 4
  %28 = load i32, ptr %5, align 4
  %29 = icmp ult i32 %27, %28
  br label %30

30:                                               ; preds = %26, %21
  %31 = phi i1 [ false, %21 ], [ %29, %26 ]
  br i1 %31, label %33, label %32

32:                                               ; preds = %30
  call void @llvm.lifetime.end.p0(i64 4, ptr %8) #8
  br label %43

33:                                               ; preds = %30
  %34 = load ptr, ptr %6, align 8
  %35 = load i32, ptr %8, align 4
  %36 = sext i32 %35 to i64
  %37 = getelementptr inbounds %struct.slurm_selected_step_t, ptr %34, i64 %36
  %38 = load ptr, ptr %4, align 8
  %39 = call i32 @foreach_job_by_id_ro(ptr noundef %37, ptr noundef @_foreach_job, ptr noundef null, ptr noundef %38)
  br label %40

40:                                               ; preds = %33
  %41 = load i32, ptr %8, align 4
  %42 = add nsw i32 %41, 1
  store i32 %42, ptr %8, align 4
  br label %21, !llvm.loop !13

43:                                               ; preds = %32
  br label %44

44:                                               ; preds = %43, %11
  ret void
}

; Function Attrs: nounwind uwtable
define dso_local i32 @dump_job_state(i32 noundef %0, ptr noundef %1, ptr noundef %2, ptr noundef %3) #0 {
  %5 = alloca i32, align 4
  %6 = alloca ptr, align 8
  %7 = alloca ptr, align 8
  %8 = alloca ptr, align 8
  %9 = alloca %struct.slurmctld_lock_t, align 8
  %10 = alloca %struct.job_state_args_t, align 8
  %11 = alloca i8, align 1
  store i32 %0, ptr %5, align 4
  store ptr %1, ptr %6, align 8
  store ptr %2, ptr %7, align 8
  store ptr %3, ptr %8, align 8
  call void @llvm.lifetime.start.p0(i64 20, ptr %9) #8
  call void @llvm.memcpy.p0.p0.i64(ptr align 4 %9, ptr align 4 @__const.dump_job_state.job_read_lock, i64 20, i1 false)
  call void @llvm.lifetime.start.p0(i64 32, ptr %10) #8
  call void @llvm.memcpy.p0.p0.i64(ptr align 8 %10, ptr align 8 @__const.dump_job_state.args, i64 32, i1 false)
  call void @llvm.lifetime.start.p0(i64 1, ptr %11) #8
  %12 = load ptr, ptr @cache_table, align 8
  %13 = icmp ne ptr %12, null
  %14 = zext i1 %13 to i8
  store i8 %14, ptr %11, align 1
  %15 = load i8, ptr %11, align 1, !range !8, !noundef !9
  %16 = trunc i8 %15 to i1
  br i1 %16, label %18, label %17

17:                                               ; preds = %4
  call void @lock_slurmctld(ptr noundef byval(%struct.slurmctld_lock_t) align 8 %9)
  br label %18

18:                                               ; preds = %17, %4
  %19 = load i8, ptr %11, align 1, !range !8, !noundef !9
  %20 = trunc i8 %19 to i1
  br i1 %20, label %21, label %24

21:                                               ; preds = %18
  %22 = load i32, ptr %5, align 4
  %23 = load ptr, ptr %6, align 8
  call void @_dump_job_state_cached(ptr noundef %10, i32 noundef %22, ptr noundef %23)
  br label %27

24:                                               ; preds = %18
  %25 = load i32, ptr %5, align 4
  %26 = load ptr, ptr %6, align 8
  call void @_dump_job_state_locked(ptr noundef %10, i32 noundef %25, ptr noundef %26)
  br label %27

27:                                               ; preds = %24, %21
  %28 = getelementptr inbounds nuw %struct.job_state_args_t, ptr %10, i32 0, i32 2
  %29 = load i32, ptr %28, align 8
  %30 = icmp ugt i32 %29, 0
  br i1 %30, label %31, label %52

31:                                               ; preds = %27
  %32 = getelementptr inbounds nuw %struct.job_state_args_t, ptr %10, i32 0, i32 3
  %33 = getelementptr inbounds nuw %struct.job_state_args_t, ptr %10, i32 0, i32 2
  %34 = load i32, ptr %33, align 8
  %35 = zext i32 %34 to i64
  %36 = call ptr @slurm_xrecalloc(ptr noundef %32, i64 noundef %35, i64 noundef 32, i1 noundef zeroext true, i1 noundef zeroext true, ptr noundef @.str, i32 noundef 655, ptr noundef @__func__.dump_job_state)
  %37 = icmp ne ptr %36, null
  br i1 %37, label %40, label %38

38:                                               ; preds = %31
  %39 = getelementptr inbounds nuw %struct.job_state_args_t, ptr %10, i32 0, i32 1
  store i32 12, ptr %39, align 4
  br label %59

40:                                               ; preds = %31
  %41 = getelementptr inbounds nuw %struct.job_state_args_t, ptr %10, i32 0, i32 4
  store i8 0, ptr %41, align 8
  %42 = getelementptr inbounds nuw %struct.job_state_args_t, ptr %10, i32 0, i32 2
  store i32 0, ptr %42, align 8
  %43 = load i8, ptr %11, align 1, !range !8, !noundef !9
  %44 = trunc i8 %43 to i1
  br i1 %44, label %45, label %48

45:                                               ; preds = %40
  %46 = load i32, ptr %5, align 4
  %47 = load ptr, ptr %6, align 8
  call void @_dump_job_state_cached(ptr noundef %10, i32 noundef %46, ptr noundef %47)
  br label %51

48:                                               ; preds = %40
  %49 = load i32, ptr %5, align 4
  %50 = load ptr, ptr %6, align 8
  call void @_dump_job_state_locked(ptr noundef %10, i32 noundef %49, ptr noundef %50)
  br label %51

51:                                               ; preds = %48, %45
  br label %52

52:                                               ; preds = %51, %27
  %53 = getelementptr inbounds nuw %struct.job_state_args_t, ptr %10, i32 0, i32 3
  %54 = load ptr, ptr %53, align 8
  %55 = load ptr, ptr %8, align 8
  store ptr %54, ptr %55, align 8
  %56 = getelementptr inbounds nuw %struct.job_state_args_t, ptr %10, i32 0, i32 2
  %57 = load i32, ptr %56, align 8
  %58 = load ptr, ptr %7, align 8
  store i32 %57, ptr %58, align 4
  br label %59

59:                                               ; preds = %52, %38
  %60 = load i8, ptr %11, align 1, !range !8, !noundef !9
  %61 = trunc i8 %60 to i1
  br i1 %61, label %63, label %62

62:                                               ; preds = %59
  call void @unlock_slurmctld(ptr noundef byval(%struct.slurmctld_lock_t) align 8 %9)
  br label %63

63:                                               ; preds = %62, %59
  %64 = getelementptr inbounds nuw %struct.job_state_args_t, ptr %10, i32 0, i32 1
  %65 = load i32, ptr %64, align 4
  call void @llvm.lifetime.end.p0(i64 1, ptr %11) #8
  call void @llvm.lifetime.end.p0(i64 32, ptr %10) #8
  call void @llvm.lifetime.end.p0(i64 20, ptr %9) #8
  ret i32 %65
}