; Function Attrs: nounwind uwtable
define dso_local i32 @dump_job_state(i32 noundef %0, ptr noundef %1, ptr noundef writeonly captures(none) %2, ptr noundef writeonly captures(none) %3) local_unnamed_addr #0 {
  %5 = alloca %struct.slurm_selected_step_t, align 8
  %6 = alloca %struct.slurm_selected_step_t, align 8
  %7 = alloca %struct.job_state_args_t, align 8
  call void @llvm.lifetime.start.p0(i64 32, ptr nonnull %7) #9
  call void @llvm.memcpy.p0.p0.i64(ptr noundef nonnull align 8 dereferenceable(32) %7, ptr noundef nonnull align 8 dereferenceable(32) @__const.dump_job_state.args, i64 32, i1 false)
  %8 = load ptr, ptr @cache_table, align 8
  %.not = icmp eq ptr %8, null
  br i1 %.not, label %9, label %.critedge

9:                                                ; preds = %4
  tail call void @lock_slurmctld(ptr noundef nonnull byval(%struct.slurmctld_lock_t) align 8 @__const.dump_job_state.job_read_lock) #9
  %.not.i = icmp eq i32 %0, 0
  br i1 %.not.i, label %13, label %.preheader.i

.preheader.i:                                     ; preds = %9
  %10 = getelementptr inbounds nuw i8, ptr %7, i64 4
  %11 = load i32, ptr %10, align 4
  %.not910.i = icmp eq i32 %11, 0
  br i1 %.not910.i, label %.lr.ph.preheader.i, label %_dump_job_state_locked.exit

.lr.ph.preheader.i:                               ; preds = %.preheader.i
  %12 = zext i32 %0 to i64
  br label %.lr.ph.i

13:                                               ; preds = %9
  call void @llvm.lifetime.start.p0(i64 40, ptr nonnull %6) #9
  call void @llvm.memset.p0.i64(ptr noundef nonnull align 8 dereferenceable(40) %6, i8 0, i64 40, i1 false)
  %14 = getelementptr inbounds nuw i8, ptr %6, i64 8
  store i32 -2, ptr %14, align 8
  %15 = getelementptr inbounds nuw i8, ptr %6, i64 12
  store i32 -2, ptr %15, align 4
  %16 = getelementptr inbounds nuw i8, ptr %6, i64 16
  store i64 4294967294, ptr %16, align 8
  %17 = getelementptr inbounds nuw i8, ptr %6, i64 24
  store i32 -2, ptr %17, align 8
  %18 = getelementptr inbounds nuw i8, ptr %6, i64 28
  store i32 -2, ptr %18, align 4
  %19 = call i32 @foreach_job_by_id_ro(ptr noundef nonnull %6, ptr noundef nonnull @_foreach_job, ptr noundef null, ptr noundef nonnull %7) #9
  call void @llvm.lifetime.end.p0(i64 40, ptr nonnull %6) #9
  br label %_dump_job_state_locked.exit

.lr.ph.i:                                         ; preds = %.lr.ph.i, %.lr.ph.preheader.i
  %indvars.iv.i = phi i64 [ 0, %.lr.ph.preheader.i ], [ %indvars.iv.next.i, %.lr.ph.i ]
  %20 = getelementptr inbounds nuw %struct.slurm_selected_step_t, ptr %1, i64 %indvars.iv.i
  %21 = call i32 @foreach_job_by_id_ro(ptr noundef %20, ptr noundef nonnull @_foreach_job, ptr noundef null, ptr noundef nonnull %7) #9
  %indvars.iv.next.i = add nuw nsw i64 %indvars.iv.i, 1
  %22 = load i32, ptr %10, align 4
  %.not9.i = icmp eq i32 %22, 0
  %23 = icmp samesign ult i64 %indvars.iv.next.i, %12
  %24 = select i1 %.not9.i, i1 %23, i1 false
  br i1 %24, label %.lr.ph.i, label %_dump_job_state_locked.exit, !llvm.loop !11

.critedge:                                        ; preds = %4
  call fastcc void @_dump_job_state_cached(ptr noundef %7, i32 noundef %0, ptr noundef %1)
  br label %_dump_job_state_locked.exit

_dump_job_state_locked.exit:                      ; preds = %.lr.ph.i, %13, %.preheader.i, %.critedge
  %25 = getelementptr inbounds nuw i8, ptr %7, i64 8
  %26 = load i32, ptr %25, align 8
  %.not13 = icmp eq i32 %26, 0
  br i1 %.not13, label %_dump_job_state_locked.exit23, label %27

27:                                               ; preds = %_dump_job_state_locked.exit
  %28 = getelementptr inbounds nuw i8, ptr %7, i64 16
  %29 = zext i32 %26 to i64
  %30 = call ptr @slurm_xrecalloc(ptr noundef nonnull %28, i64 noundef %29, i64 noundef 32, i1 noundef zeroext true, i1 noundef zeroext true, ptr noundef nonnull @.str, i32 noundef 655, ptr noundef nonnull @__func__.dump_job_state) #9
  %.not14 = icmp eq ptr %30, null
  br i1 %.not14, label %31, label %33

31:                                               ; preds = %27
  %32 = getelementptr inbounds nuw i8, ptr %7, i64 4
  store i32 12, ptr %32, align 4
  br label %55

33:                                               ; preds = %27
  %34 = getelementptr inbounds nuw i8, ptr %7, i64 24
  store i8 0, ptr %34, align 8
  store i32 0, ptr %25, align 8
  br i1 %.not, label %36, label %35

35:                                               ; preds = %33
  call fastcc void @_dump_job_state_cached(ptr noundef %7, i32 noundef %0, ptr noundef %1)
  br label %_dump_job_state_locked.exit23

36:                                               ; preds = %33
  %.not.i15 = icmp eq i32 %0, 0
  br i1 %.not.i15, label %40, label %.preheader.i16

.preheader.i16:                                   ; preds = %36
  %37 = getelementptr inbounds nuw i8, ptr %7, i64 4
  %38 = load i32, ptr %37, align 4
  %.not910.i17 = icmp eq i32 %38, 0
  br i1 %.not910.i17, label %.lr.ph.preheader.i18, label %_dump_job_state_locked.exit23

.lr.ph.preheader.i18:                             ; preds = %.preheader.i16
  %39 = zext i32 %0 to i64
  br label %.lr.ph.i19

40:                                               ; preds = %36
  call void @llvm.lifetime.start.p0(i64 40, ptr nonnull %5) #9
  call void @llvm.memset.p0.i64(ptr noundef nonnull align 8 dereferenceable(40) %5, i8 0, i64 40, i1 false)
  %41 = getelementptr inbounds nuw i8, ptr %5, i64 8
  store i32 -2, ptr %41, align 8
  %42 = getelementptr inbounds nuw i8, ptr %5, i64 12
  store i32 -2, ptr %42, align 4
  %43 = getelementptr inbounds nuw i8, ptr %5, i64 16
  store i64 4294967294, ptr %43, align 8
  %44 = getelementptr inbounds nuw i8, ptr %5, i64 24
  store i32 -2, ptr %44, align 8
  %45 = getelementptr inbounds nuw i8, ptr %5, i64 28
  store i32 -2, ptr %45, align 4
  %46 = call i32 @foreach_job_by_id_ro(ptr noundef nonnull %5, ptr noundef nonnull @_foreach_job, ptr noundef null, ptr noundef nonnull %7) #9
  call void @llvm.lifetime.end.p0(i64 40, ptr nonnull %5) #9
  br label %_dump_job_state_locked.exit23

.lr.ph.i19:                                       ; preds = %.lr.ph.i19, %.lr.ph.preheader.i18
  %indvars.iv.i20 = phi i64 [ 0, %.lr.ph.preheader.i18 ], [ %indvars.iv.next.i21, %.lr.ph.i19 ]
  %47 = getelementptr inbounds nuw %struct.slurm_selected_step_t, ptr %1, i64 %indvars.iv.i20
  %48 = call i32 @foreach_job_by_id_ro(ptr noundef %47, ptr noundef nonnull @_foreach_job, ptr noundef null, ptr noundef nonnull %7) #9
  %indvars.iv.next.i21 = add nuw nsw i64 %indvars.iv.i20, 1
  %49 = load i32, ptr %37, align 4
  %.not9.i22 = icmp eq i32 %49, 0
  %50 = icmp samesign ult i64 %indvars.iv.next.i21, %39
  %51 = select i1 %.not9.i22, i1 %50, i1 false
  br i1 %51, label %.lr.ph.i19, label %_dump_job_state_locked.exit23, !llvm.loop !11

_dump_job_state_locked.exit23:                    ; preds = %.lr.ph.i19, %40, %.preheader.i16, %35, %_dump_job_state_locked.exit
  %52 = getelementptr inbounds nuw i8, ptr %7, i64 16
  %53 = load ptr, ptr %52, align 8
  store ptr %53, ptr %3, align 8
  %54 = load i32, ptr %25, align 8
  store i32 %54, ptr %2, align 4
  br label %55

55:                                               ; preds = %_dump_job_state_locked.exit23, %31
  br i1 %.not, label %56, label %57

56:                                               ; preds = %55
  call void @unlock_slurmctld(ptr noundef nonnull byval(%struct.slurmctld_lock_t) align 8 @__const.dump_job_state.job_read_lock) #9
  br label %57

57:                                               ; preds = %56, %55
  %58 = getelementptr inbounds nuw i8, ptr %7, i64 4
  %59 = load i32, ptr %58, align 4
  call void @llvm.lifetime.end.p0(i64 32, ptr nonnull %7) #9
  ret i32 %59
}